; Function Attrs: mustprogress nofree norecurse nosync nounwind willreturn memory(read, inaccessiblemem: none) uwtable
define dso_local noundef zeroext i1 @_Z9is_numberRKNSt7__cxx1112basic_stringIcSt11char_traitsIcESaIcEEE(ptr noundef nonnull readonly align 8 captures(none) dereferenceable(32) %0) local_unnamed_addr #6 {
  %2 = load ptr, ptr %0, align 8, !tbaa !4
  %3 = getelementptr inbounds nuw i8, ptr %0, i64 8
  %4 = load i64, ptr %3, align 8, !tbaa !12
  %5 = getelementptr i8, ptr %2, i64 %4
  %.not10 = icmp samesign eq i64 %4, 0
  br i1 %.not10, label %.critedge, label %.lr.ph

.lr.ph:                                           ; preds = %1, %8
  %.sroa.05.011 = phi ptr [ %9, %8 ], [ %2, %1 ]
  %6 = load i8, ptr %.sroa.05.011, align 1, !tbaa !13
  %7 = sext i8 %6 to i32
  %isdigittmp = add nsw i32 %7, -48
  %isdigit = icmp ult i32 %isdigittmp, 10
  br i1 %isdigit, label %8, label %.critedge

8:                                                ; preds = %.lr.ph
  %9 = getelementptr inbounds nuw i8, ptr %.sroa.05.011, i64 1
  %.not = icmp eq ptr %9, %5
  br i1 %.not, label %.critedge, label %.lr.ph, !llvm.loop !14

.critedge:                                        ; preds = %.lr.ph, %8, %1
  %.sroa.05.0.lcssa = phi ptr [ %2, %1 ], [ %5, %8 ], [ %.sroa.05.011, %.lr.ph ]
  %10 = icmp ne i64 %4, 0
  %11 = icmp eq ptr %.sroa.05.0.lcssa, %5
  %spec.select = and i1 %10, %11
  ret i1 %spec.select
}